target datalayout = "e-m:e-p270:32:32-p271:32:32-p272:64:64-i64:64-i128:128-f80:128-n8:16:32:64-S128"
target triple = "x86_64-pc-linux-gnu"

%struct.X509_algor_st = type { ptr, ptr }
%struct.asn1_string_st = type { i32, i32, ptr, i64 }
%struct.X509_acert_st = type { ptr, %struct.X509_algor_st, %struct.asn1_string_st }
%struct.X509_acert_info_st = type { %struct.asn1_string_st, %struct.X509_holder_st, %struct.X509_acert_issuer_st, %struct.X509_algor_st, %struct.asn1_string_st, %struct.X509_val_st, ptr, ptr, ptr }
%struct.X509_holder_st = type { ptr, ptr, ptr }
%struct.X509_acert_issuer_st = type { i32, %union.anon }
%union.anon = type { ptr }
%struct.X509_val_st = type { ptr, ptr }

@.str = private unnamed_addr constant [34 x i8] c"../openssl/crypto/x509/x509aset.c\00", align 1
@__func__.replace_gentime = private unnamed_addr constant [16 x i8] c"replace_gentime\00", align 1

; Function Attrs: nounwind uwtable
define internal i32 @replace_gentime(ptr noundef %0, ptr noundef %1) #0 {
  %3 = alloca i32, align 4
  %4 = alloca ptr, align 8
  %5 = alloca ptr, align 8
  %6 = alloca ptr, align 8
  %7 = alloca i32, align 4
  store ptr %0, ptr %4, align 8, !tbaa !51
  store ptr %1, ptr %5, align 8, !tbaa !12
  call void @llvm.lifetime.start.p0(i64 8, ptr %6) #4
  %8 = load ptr, ptr %5, align 8, !tbaa !12
  %9 = getelementptr inbounds nuw %struct.asn1_string_st, ptr %8, i32 0, i32 1
  %10 = load i32, ptr %9, align 4, !tbaa !53
  %11 = icmp ne i32 %10, 24
  br i1 %11, label %12, label %13

12:                                               ; preds = %2
  store i32 0, ptr %3, align 4
  store i32 1, ptr %7, align 4
  br label %30

13:                                               ; preds = %2
  %14 = load ptr, ptr %4, align 8, !tbaa !51
  %15 = load ptr, ptr %14, align 8, !tbaa !12
  %16 = load ptr, ptr %5, align 8, !tbaa !12
  %17 = icmp eq ptr %15, %16
  br i1 %17, label %18, label %19

18:                                               ; preds = %13
  store i32 1, ptr %3, align 4
  store i32 1, ptr %7, align 4
  br label %30

19:                                               ; preds = %13
  %20 = load ptr, ptr %5, align 8, !tbaa !12
  %21 = call ptr @ASN1_STRING_dup(ptr noundef %20)
  store ptr %21, ptr %6, align 8, !tbaa !12
  %22 = load ptr, ptr %6, align 8, !tbaa !12
  %23 = icmp eq ptr %22, null
  br i1 %23, label %24, label %25

24:                                               ; preds = %19
  call void @ERR_new()
  call void @ERR_set_debug(ptr noundef @.str, i32 noundef 27, ptr noundef @__func__.replace_gentime)
  call void (i32, i32, ptr, ...) @ERR_set_error(i32 noundef 11, i32 noundef 524301, ptr noundef null)
  store i32 0, ptr %3, align 4
  store i32 1, ptr %7, align 4
  br label %30

25:                                               ; preds = %19
  %26 = load ptr, ptr %4, align 8, !tbaa !51
  %27 = load ptr, ptr %26, align 8, !tbaa !12
  call void @ASN1_STRING_free(ptr noundef %27)
  %28 = load ptr, ptr %6, align 8, !tbaa !12
  %29 = load ptr, ptr %4, align 8, !tbaa !51
  store ptr %28, ptr %29, align 8, !tbaa !12
  store i32 1, ptr %3, align 4
  store i32 1, ptr %7, align 4
  br label %30

30:                                               ; preds = %25, %24, %18, %12
  call void @llvm.lifetime.end.p0(i64 8, ptr %6) #4
  %31 = load i32, ptr %3, align 4
  ret i32 %31
}

; Function Attrs: nounwind uwtable
define i32 @X509_ACERT_set1_notAfter(ptr noundef %0, ptr noundef %1) #0 {
  %3 = alloca ptr, align 8
  %4 = alloca ptr, align 8
  store ptr %0, ptr %3, align 8, !tbaa !29
  store ptr %1, ptr %4, align 8, !tbaa !12
  %5 = load ptr, ptr %3, align 8, !tbaa !29
  %6 = getelementptr inbounds nuw %struct.X509_acert_st, ptr %5, i32 0, i32 0
  %7 = load ptr, ptr %6, align 8, !tbaa !32
  %8 = getelementptr inbounds nuw %struct.X509_acert_info_st, ptr %7, i32 0, i32 5
  %9 = getelementptr inbounds nuw %struct.X509_val_st, ptr %8, i32 0, i32 1
  %10 = load ptr, ptr %4, align 8, !tbaa !12
  %11 = call i32 @replace_gentime(ptr noundef %9, ptr noundef %10)
  ret i32 %11
}