; Function Attrs: nounwind uwtable
define range(i32 0, 2) i32 @X509_ACERT_set1_notAfter(ptr noundef readonly captures(none) %0, ptr noundef %1) local_unnamed_addr #0 {
  %3 = load ptr, ptr %0, align 8, !tbaa !15
  %4 = getelementptr inbounds nuw i8, ptr %3, i64 112
  %5 = getelementptr inbounds nuw i8, ptr %1, i64 4
  %6 = load i32, ptr %5, align 4, !tbaa !34
  %.not.i = icmp eq i32 %6, 24
  br i1 %.not.i, label %7, label %replace_gentime.exit

7:                                                ; preds = %2
  %8 = load ptr, ptr %4, align 8, !tbaa !35
  %9 = icmp eq ptr %8, %1
  br i1 %9, label %replace_gentime.exit, label %10

10:                                               ; preds = %7
  %11 = tail call ptr @ASN1_STRING_dup(ptr noundef nonnull %1) #2
  %12 = icmp eq ptr %11, null
  br i1 %12, label %13, label %14

13:                                               ; preds = %10
  tail call void @ERR_new() #2
  tail call void @ERR_set_debug(ptr noundef nonnull @.str, i32 noundef 27, ptr noundef nonnull @__func__.replace_gentime) #2
  tail call void (i32, i32, ptr, ...) @ERR_set_error(i32 noundef 11, i32 noundef 524301, ptr noundef null) #2
  br label %replace_gentime.exit

14:                                               ; preds = %10
  %15 = load ptr, ptr %4, align 8, !tbaa !35
  tail call void @ASN1_STRING_free(ptr noundef %15) #2
  store ptr %11, ptr %4, align 8, !tbaa !35
  br label %replace_gentime.exit

replace_gentime.exit:                             ; preds = %2, %7, %13, %14
  %.0.i = phi i32 [ 0, %13 ], [ 1, %14 ], [ 0, %2 ], [ 1, %7 ]
  ret i32 %.0.i
}